; Function Attrs: mustprogress uwtable
define void @_ZN3zmq6pipe_t14set_event_sinkEPNS_13i_pipe_eventsE(ptr noundef nonnull align 8 captures(none) dereferenceable(328) %0, ptr noundef %1) local_unnamed_addr #0 align 2 {
  %3 = getelementptr inbounds nuw i8, ptr %0, i64 144
  %4 = load ptr, ptr %3, align 8, !tbaa !126
  %.not = icmp eq ptr %4, null
  br i1 %.not, label %10, label %5, !prof !47

5:                                                ; preds = %2
  %6 = load ptr, ptr @stderr, align 8, !tbaa !21
  %7 = tail call i32 (ptr, ptr, ...) @fprintf(ptr noundef %6, ptr noundef nonnull @.str.4, ptr noundef nonnull @.str.7, ptr noundef nonnull @.str.1, i32 noundef 118) #26
  %8 = load ptr, ptr @stderr, align 8, !tbaa !21
  %9 = tail call i32 @fflush(ptr noundef %8)
  tail call void @_ZN3zmq9zmq_abortEPKc(ptr noundef nonnull @.str.7)
  br label %10

10:                                               ; preds = %2, %5
  store ptr %1, ptr %3, align 8, !tbaa !126
  ret void
}